target datalayout = "e-m:e-p270:32:32-p271:32:32-p272:64:64-i64:64-i128:128-f80:128-n8:16:32:64-S128"
target triple = "x86_64-pc-linux-gnu"

%"class.cv::Size_" = type { i32, i32 }
%"class.cv::details::Chessboard::Board" = type { ptr, %"class.std::vector.24", %"class.std::vector.29", ptr, i32, i32, float, float }
%"class.std::vector.24" = type { %"struct.std::_Vector_base.25" }
%"struct.std::_Vector_base.25" = type { %"struct.std::_Vector_base<cv::details::Chessboard::Board::Cell *, std::allocator<cv::details::Chessboard::Board::Cell *>>::_Vector_impl" }
%"struct.std::_Vector_base<cv::details::Chessboard::Board::Cell *, std::allocator<cv::details::Chessboard::Board::Cell *>>::_Vector_impl" = type { %"struct.std::_Vector_base<cv::details::Chessboard::Board::Cell *, std::allocator<cv::details::Chessboard::Board::Cell *>>::_Vector_impl_data" }
%"struct.std::_Vector_base<cv::details::Chessboard::Board::Cell *, std::allocator<cv::details::Chessboard::Board::Cell *>>::_Vector_impl_data" = type { ptr, ptr, ptr }
%"class.std::vector.29" = type { %"struct.std::_Vector_base.30" }
%"struct.std::_Vector_base.30" = type { %"struct.std::_Vector_base<cv::Point_<float> *, std::allocator<cv::Point_<float> *>>::_Vector_impl" }
%"struct.std::_Vector_base<cv::Point_<float> *, std::allocator<cv::Point_<float> *>>::_Vector_impl" = type { %"struct.std::_Vector_base<cv::Point_<float> *, std::allocator<cv::Point_<float> *>>::_Vector_impl_data" }
%"struct.std::_Vector_base<cv::Point_<float> *, std::allocator<cv::Point_<float> *>>::_Vector_impl_data" = type { ptr, ptr, ptr }

; Function Attrs: inlinehint mustprogress nounwind uwtable
define linkonce_odr hidden void @_ZN2cv5Size_IiEC2Eii(ptr noundef nonnull align 4 dereferenceable(8) %0, i32 noundef %1, i32 noundef %2) unnamed_addr #6 comdat align 2 {
  %4 = alloca ptr, align 8
  %5 = alloca i32, align 4
  %6 = alloca i32, align 4
  store ptr %0, ptr %4, align 8, !tbaa !151
  store i32 %1, ptr %5, align 4, !tbaa !3
  store i32 %2, ptr %6, align 4, !tbaa !3
  %7 = load ptr, ptr %4, align 8
  %8 = getelementptr inbounds nuw %"class.cv::Size_", ptr %7, i32 0, i32 0
  %9 = load i32, ptr %5, align 4, !tbaa !3
  store i32 %9, ptr %8, align 4, !tbaa !35
  %10 = getelementptr inbounds nuw %"class.cv::Size_", ptr %7, i32 0, i32 1
  %11 = load i32, ptr %6, align 4, !tbaa !3
  store i32 %11, ptr %10, align 4, !tbaa !39
  ret void
}

; Function Attrs: mustprogress nounwind uwtable
define hidden noundef i64 @_ZNK2cv7details10Chessboard5Board8rowCountEv(ptr noundef nonnull align 8 dereferenceable(80) %0) #7 align 2 {
  %2 = alloca ptr, align 8
  store ptr %0, ptr %2, align 8, !tbaa !236
  %3 = load ptr, ptr %2, align 8
  %4 = getelementptr inbounds nuw %"class.cv::details::Chessboard::Board", ptr %3, i32 0, i32 4
  %5 = load i32, ptr %4, align 8, !tbaa !250
  %6 = sext i32 %5 to i64
  ret i64 %6
}

; Function Attrs: mustprogress nounwind uwtable
define hidden noundef i64 @_ZNK2cv7details10Chessboard5Board8colCountEv(ptr noundef nonnull align 8 dereferenceable(80) %0) #7 align 2 {
  %2 = alloca ptr, align 8
  store ptr %0, ptr %2, align 8, !tbaa !236
  %3 = load ptr, ptr %2, align 8
  %4 = getelementptr inbounds nuw %"class.cv::details::Chessboard::Board", ptr %3, i32 0, i32 5
  %5 = load i32, ptr %4, align 4, !tbaa !251
  %6 = sext i32 %5 to i64
  ret i64 %6
}

; Function Attrs: mustprogress uwtable
define hidden i64 @_ZNK2cv7details10Chessboard5Board7getSizeEv(ptr noundef nonnull align 8 dereferenceable(80) %0) #5 align 2 {
  %2 = alloca %"class.cv::Size_", align 4
  %3 = alloca ptr, align 8
  store ptr %0, ptr %3, align 8, !tbaa !236
  %4 = load ptr, ptr %3, align 8
  %5 = call noundef i64 @_ZNK2cv7details10Chessboard5Board8colCountEv(ptr noundef nonnull align 8 dereferenceable(80) %4)
  %6 = trunc i64 %5 to i32
  %7 = call noundef i64 @_ZNK2cv7details10Chessboard5Board8rowCountEv(ptr noundef nonnull align 8 dereferenceable(80) %4)
  %8 = trunc i64 %7 to i32
  call void @_ZN2cv5Size_IiEC2Eii(ptr noundef nonnull align 4 dereferenceable(8) %2, i32 noundef %6, i32 noundef %8)
  %9 = load i64, ptr %2, align 4
  ret i64 %9
}