; Function Attrs: mustprogress nofree norecurse nosync nounwind willreturn memory(argmem: read) uwtable
define hidden i64 @_ZNK2cv7details10Chessboard5Board7getSizeEv(ptr noundef nonnull readonly align 8 captures(none) dereferenceable(80) %0) local_unnamed_addr #20 align 2 {
  %2 = getelementptr inbounds nuw i8, ptr %0, i64 68
  %3 = load i32, ptr %2, align 4, !tbaa !220
  %4 = getelementptr inbounds nuw i8, ptr %0, i64 64
  %5 = load i32, ptr %4, align 8, !tbaa !219
  %.sroa.2.0.insert.ext = zext i32 %5 to i64
  %.sroa.2.0.insert.shift = shl nuw i64 %.sroa.2.0.insert.ext, 32
  %.sroa.0.0.insert.ext = zext i32 %3 to i64
  %.sroa.0.0.insert.insert = or disjoint i64 %.sroa.2.0.insert.shift, %.sroa.0.0.insert.ext
  ret i64 %.sroa.0.0.insert.insert
}